MPASM 5.65                     STOPWATCH.ASM   2-18-2016  16:05:27         PAGE  1


LOC  OBJECT CODE     LINE SOURCE TEXT
  VALUE

                      00001 #include P16F84A.INC
                      00001         LIST
                      00002 
                      00003 ;==========================================================================
                      00004 ; Build date : Dec 08 2015
                      00005 ;  MPASM PIC16F84A processor include
                      00006 ; 
                      00007 ;  (c) Copyright 1999-2015 Microchip Technology, All rights reserved
                      00008 ;==========================================================================
                      00009 
                      00209         LIST
2007   3FF1           00002     __config _XT_OSC  &  _WDT_OFF & _PWRTE_ON
                      00003 ;File Registers used by delay subroutine
  00000021            00004 DELAY_COUNT1            EQU     H'21'
  00000022            00005 DELAY_COUNT2            EQU     H'22'
  00000023            00006 DELAY_COUNT3            EQU     H'23'
Warning[205]: Found directive in column 1. (ORG)
                      00007 ORG   h'0'
0000   1683           00008     bsf         STATUS,5        ;select bank 1
0001   3001           00009     movlw       B'00000001'   ;set up port B0 as input
Message[302]: Register in operand not in bank 0.  Ensure that bank bits are correct.
0002   0086           00010     movwf       TRISB
0003   3010           00011     movlw       B'00010000'   ;set up port A4 as an input
Message[302]: Register in operand not in bank 0.  Ensure that bank bits are correct.
0004   0085           00012     movwf       TRISA
0005   1283           00013     bcf         STATUS,5        ;select bank 0
                      00014         
0006                  00015 loop
0006   300F           00016     movlw       B'00001111'
0007   0085           00017     movwf       PORTA
0008   3041           00018     movlw       ~B'10111110'
0009   0086           00019     movwf       PORTB
                      00020 ;    call       conversion
                      00021 
                      00022 ;    BTFSC      PORTA,4
                      00023 ;    goto       loopcount       
000A   2???           00024     goto        loop
                      00025             
                      00026 ;loop0    
                      00027 ;    movlw ~B'00001100'
                      00028 ;    movwf PORTB
                      00029 ;    call delay2
                      00030 ;    BTFSC PORTA,4
                      00031 ;    return 
                      00032 ;    goto loop0
                      00033 ;    
                      00034 ;loop1    
                      00035 ;    movlw ~B'00001100'
                      00036 ;    movwf PORTB
                      00037 ;    call delay2
                      00038 ;    BTFSC PORTA,4
                      00039 ;    return 
                      00040 ;    goto loop1
MPASM 5.65                     STOPWATCH.ASM   2-18-2016  16:05:27         PAGE  2


LOC  OBJECT CODE     LINE SOURCE TEXT
  VALUE

                      00041 ;
                      00042 ;loop2
                      00043 ;    movlw  ~B'11011010'
                      00044 ;    movwf PORTB
                      00045 ;    call delay2
                      00046 ;    BTFSC PORTA,4
                      00047 ;    return
                      00048 ;    goto loop2
                      00049 ;
                      00050 ;loop3
                      00051 ;    movlw   ~B'11110010' 
                      00052 ;    movwf PORTB
                      00053 ;    call delay2
                      00054 ;    BTFSC PORTA,4
                      00055 ;    return
                      00056 ;    goto loop3
                      00057 ;
                      00058 ;loop4
                      00059 ;    movlw   ~B'11100100' 
                      00060 ;    movwf PORTB
                      00061 ;    call delay2
                      00062 ;    BTFSC PORTA,4
                      00063 ;    return
                      00064 ;    goto loop4
                      00065 ;
                      00066 ;loop5
                      00067 ;    movlw      ~B'01110110' 
                      00068 ;    movwf      PORTB
                      00069 ;    call       delay2
                      00070 ;    BTFSC      PORTA,4
                      00071 ;    return
                      00072 ;    goto       loop5
                      00073 ;
                      00074 ;loop6
                      00075 ;    movlw      ~B'01111110'  
                      00076 ;    movwf      PORTB
                      00077 ;    call       delay2
                      00078 ;    BTFSC      PORTA,4
                      00079 ;    return
                      00080 ;    goto       loop6
                      00081 ;
                      00082 ;loop7
                      00083 ;    movlw   ~B'10100010' 
                      00084 ;    movwf PORTB
                      00085 ;    call delay2
                      00086 ;    BTFSC PORTA,4
                      00087 ;    return
                      00088 ;    goto loop7
                      00089 ;
                      00090 ;loop8
                      00091 ;    movlw   ~B'11111110'
                      00092 ;    movwf PORTB
                      00093 ;    call delay2
MPASM 5.65                     STOPWATCH.ASM   2-18-2016  16:05:27         PAGE  3


LOC  OBJECT CODE     LINE SOURCE TEXT
  VALUE

                      00094 ;    BTFSC PORTA,4
                      00095 ;    return
                      00096 ;    goto loop8
                      00097 ;
                      00098 ;loop9
                      00099 ;    movlw   ~B'11100111'
                      00100 ;    movwf PORTB
                      00101 ;    call delay2
                      00102 ;    BTFSC PORTA,4
                      00103 ;    return
                      00104 ;    goto loop9
                      00105 ;
                      00106 ;
                      00107 ;    
                      00108 ;loopcount
                      00109 ;    movlw B'00000001'
                      00110 ;    movwf      PORTA
                      00111 ;    call delayseconds
                      00112 ;    movlw   ~B'01000000'   ;0
                      00113 ;    movwf   PORTB
                      00114 ;    movlw B'00000010'
                      00115 ;    movwf   PORTA
                      00116 ;    call delay01seconds
                      00117 ;    movlw B'01000000'
                      00118 ;    movlw   PORTB
                      00119 ;    movlw B'00000100'
                      00120 ;    movwf   PORTA
                      00121 ;        
                      00122 ;;      BTFSC PORTA,4
                      00123 ;;      call loop0
                      00124 ;;      BTFSC PORTB,0
                      00125 ;;      call loopcount
                      00126 ;    call delayseconds
                      00127 ;;      BTFSC PORTA,4
                      00128 ;;      call loop0
                      00129 ;;      BTFSC PORTB,0
                      00130 ;;      call loopcount
                      00131 ;       
                      00132 ;    call delayseconds
                      00133 ;    movlw   ~B'00001100'   ;1
                      00134 ;    movwf   PORTB
                      00135 ;;      BTFSC PORTA,4
                      00136 ;;      call loop1
                      00137 ;;      BTFSC PORTB,0
                      00138 ;;      call loopcount
                      00139 ;    call delayseconds
                      00140 ;;      BTFSC PORTA,4
                      00141 ;;      call loop1
                      00142 ;;      BTFSC PORTB,0
                      00143 ;;      call loopcount
                      00144 ;       
                      00145 ;    call delayseconds
                      00146 ;    movlw   ~B'11011010'   ;2
MPASM 5.65                     STOPWATCH.ASM   2-18-2016  16:05:27         PAGE  4


LOC  OBJECT CODE     LINE SOURCE TEXT
  VALUE

                      00147 ;    movwf   PORTB
                      00148 ;;      BTFSC PORTA,4
                      00149 ;;      call loop2
                      00150 ;;      BTFSC PORTB,0
                      00151 ;;      call loopcount
                      00152 ;    call delayseconds
                      00153 ;;      BTFSC PORTA,4
                      00154 ;;      call loop2
                      00155 ;;      BTFSC PORTB,0
                      00156 ;;      call loopcount
                      00157 ;       
                      00158 ;    call delayseconds
                      00159 ;    movlw   ~B'11110010'  ;3
                      00160 ;    movwf   PORTB
                      00161 ;;      BTFSC PORTA,4
                      00162 ;;      call loop3
                      00163 ;;      BTFSC PORTB,0
                      00164 ;;      call loopcount
                      00165 ;    call delayseconds
                      00166 ;;      BTFSC PORTA,4
                      00167 ;;      call loop3
                      00168 ;;      BTFSC PORTB,0
                      00169 ;;      call loopcount
                      00170 ;       
                      00171 ;    call delayseconds
                      00172 ;    movlw   ~B'11100100'   ;4
                      00173 ;    movwf   PORTB
                      00174 ;;      BTFSC PORTA,4
                      00175 ;;      call loop4
                      00176 ;;      BTFSC PORTB,0
                      00177 ;;      call loopcount
                      00178 ;    call delayseconds
                      00179 ;;      BTFSC PORTA,4
                      00180 ;;      call loop4
                      00181 ;;      BTFSC PORTB,0
                      00182 ;;      call loopcount
                      00183 ;       
                      00184 ;    call delayseconds
                      00185 ;    movlw   ~B'01110110'  ;5
                      00186 ;    movwf   PORTB
                      00187 ;;      BTFSC PORTA,4
                      00188 ;;      call loop5
                      00189 ;;      BTFSC PORTB,0
                      00190 ;;      call loopcount
                      00191 ;    call delayseconds
                      00192 ;;      BTFSC PORTA,4
                      00193 ;;      call loop5
                      00194 ;;      BTFSC PORTB,0
                      00195 ;;      call loopcount
                      00196 ;       
                      00197 ;    call delayseconds
                      00198 ;    movlw   ~B'01111110'   ;6
                      00199 ;    movwf   PORTB
MPASM 5.65                     STOPWATCH.ASM   2-18-2016  16:05:27         PAGE  5


LOC  OBJECT CODE     LINE SOURCE TEXT
  VALUE

                      00200 ;;      BTFSC PORTA,4
                      00201 ;;      call loop6
                      00202 ;;      BTFSC PORTB,0
                      00203 ;;      call loopcount
                      00204 ;    call delayseconds
                      00205 ;;      BTFSC PORTA,4
                      00206 ;;      call loop6
                      00207 ;;      BTFSC PORTB,0
                      00208 ;;      call loopcount
                      00209 ;       
                      00210 ;    call delayseconds
                      00211 ;    movlw   ~B'10100010'  ;7
                      00212 ;    movwf   PORTB
                      00213 ;;      BTFSC PORTA,4
                      00214 ;;      call loop7
                      00215 ;;      BTFSC PORTB,0
                      00216 ;;      call loopcount
                      00217 ;    call delayseconds
                      00218 ;;      BTFSC PORTA,4
                      00219 ;;      call loop7
                      00220 ;;      BTFSC PORTB,0
                      00221 ;;      call loopcount
                      00222 ;       
                      00223 ;    call delayseconds
                      00224 ;    movlw   ~B'11111110' ;8
                      00225 ;    movwf   PORTB
                      00226 ;;      BTFSC PORTA,4
                      00227 ;;      call loop8
                      00228 ;;      BTFSC PORTB,0
                      00229 ;;      call loopcount
                      00230 ;    call delayseconds
                      00231 ;;      BTFSC PORTA,4
                      00232 ;;      call loop8
                      00233 ;;      BTFSC PORTB,0
                      00234 ;;      call loopcount
                      00235 ;       
                      00236 ;    call delayseconds
                      00237 ;    movlw   ~B'11100111'  ;9
                      00238 ;    movwf   PORTB
                      00239 ;;      BTFSC PORTA,4
                      00240 ;;      call loop9
                      00241 ;;      BTFSC PORTB,0
                      00242 ;;      call loopcount
                      00243 ;    call delayseconds
                      00244 ;;      BTFSC PORTA,4
                      00245 ;;      call loop9
                      00246 ;;      BTFSC PORTB,0
                      00247 ;;      call loopcount
                      00248 ;       
                      00249 ;    goto loopcount
                      00250 ;    
                      00251 ;    
                      00252 ;; program delay
MPASM 5.65                     STOPWATCH.ASM   2-18-2016  16:05:27         PAGE  6


LOC  OBJECT CODE     LINE SOURCE TEXT
  VALUE

                      00253 ;delayseconds
                      00254 ;    movlw              H'AA'
                      00255 ;       ;initialise delay counters
                      00256 ;    movwf              DELAY_COUNT1
                      00257 ;    movlw              H'18'
                      00258 ;    movwf              DELAY_COUNT2
                      00259 ;    movlw              H'03'
                      00260 ;    movwf              DELAY_COUNT3
                      00261 ;delay_loop1
                      00262 ;    decfsz             DELAY_COUNT1,F  ; innermost loop
                      00263 ;    goto               delay_loop1     ; decrements and loops until delay_count1=0
                      00264 ;    decfsz             DELAY_COUNT2,F  ; middle loop
                      00265 ;    goto               delay_loop1
                      00266 ;    decfsz             DELAY_COUNT3,F  ; outer loop
                      00267 ;    goto               delay_loop1
                      00268 ;    return
                      00269 ;
                      00270 ;delay01seconds
                      00271 ;    movlw              H'AA'
                      00272 ;       ;initialise delay counters
                      00273 ;    movwf              DELAY_COUNT1
                      00274 ;    movlw              H'18'
                      00275 ;    movwf              DELAY_COUNT2
                      00276 ;    movlw              H'03'
                      00277 ;    movwf              DELAY_COUNT3
                      00278 ;delay_loop01
                      00279 ;    decfsz             DELAY_COUNT1,F  ; innermost loop
                      00280 ;    goto               delay_loop01    ; decrements and loops until delay_count1=0
                      00281 ;    decfsz             DELAY_COUNT2,F  ; middle loop
                      00282 ;    goto               delay_loop01
                      00283 ;    decfsz             DELAY_COUNT3,F  ; outer loop
                      00284 ;    goto               delay_loop01
                      00285 ;    return
                      00286 ;
                      00287 ;delay001seconds
                      00288 ;    movlw              H'AA'
                      00289 ;       ;initialise delay counters
                      00290 ;    movwf              DELAY_COUNT1
                      00291 ;    movlw              H'18'
                      00292 ;    movwf              DELAY_COUNT2
                      00293 ;    movlw              H'03'
                      00294 ;    movwf              DELAY_COUNT3
                      00295 ;delay_loop001
                      00296 ;    decfsz             DELAY_COUNT1,F  ; innermost loop
                      00297 ;    goto               delay_loop001   ; decrements and loops until delay_count1=0
                      00298 ;    decfsz             DELAY_COUNT2,F  ; middle loop
                      00299 ;    goto               delay_loop001
                      00300 ;    decfsz             DELAY_COUNT3,F  ; outer loop
                      00301 ;    goto               delay_loop001
                      00302 ;    return
                      00303 ;
                      00304 ;
                      00305 ;delay0001seconds
MPASM 5.65                     STOPWATCH.ASM   2-18-2016  16:05:27         PAGE  7


LOC  OBJECT CODE     LINE SOURCE TEXT
  VALUE

                      00306 ;    movlw              H'AA'
                      00307 ;       ;initialise delay counters
                      00308 ;    movwf              DELAY_COUNT1
                      00309 ;    movlw              H'18'
                      00310 ;    movwf              DELAY_COUNT2
                      00311 ;    movlw              H'03'
                      00312 ;    movwf              DELAY_COUNT3
                      00313 ;delay_loop0001
                      00314 ;    decfsz             DELAY_COUNT1,F  ; innermost loop
                      00315 ;    goto               delay_loop0001          ; decrements and loops until delay_count1=0
                      00316 ;    decfsz             DELAY_COUNT2,F  ; middle loop
                      00317 ;    goto               delay_loop0001
                      00318 ;    decfsz             DELAY_COUNT3,F  ; outer loop
                      00319 ;    goto               delay_loop0001
                      00320 ;    return
                      00321 ;
                      00322 ;delay2
                      00323 ;    movlw              H'08'
                      00324 ;       ;initialise delay counters
                      00325 ;    movwf              DELAY_COUNT1
                      00326 ;    movlw              H'18'
                      00327 ;    movwf              DELAY_COUNT2
                      00328 ;    movlw              H'03'
                      00329 ;    movwf              DELAY_COUNT3
                      00330 ;delay_loop2
                      00331 ;    decfsz             DELAY_COUNT1,F  ; innermost loop
                      00332 ;    goto               delay_loop2     ; decrements and loops until delay_count1=0
                      00333 ;    decfsz             DELAY_COUNT2,F  ; middle loop
                      00334 ;    goto               delay_loop2
                      00335 ;    decfsz             DELAY_COUNT3,F  ; outer loop
                      00336 ;    goto               delay_loop2
                      00337 ;    return
                      00338     
000B                  00339 conversion
Message[305]: Using default destination of 1 (file).
000B   0782           00340     addwf   PCL
000C   3441           00341     retlw   ~B'10111110'    ;0
000D   34CF           00342     retlw   ~B'00110000'    ;1
000E   3425           00343     retlw   ~B'11011010'    ;2
000F   340D           00344     retlw   ~B'11110010'    ;3
0010   341B           00345     retlw   ~B'11100100'    ;4
0011   3489           00346     retlw   ~B'01110110'    ;5
0012   3481           00347     retlw   ~B'01111110'    ;6
0013   345D           00348     retlw   ~B'10100010'    ;7
0014   3401           00349     retlw   ~B'11111110'    ;8
0015   3418           00350     retlw   ~B'11100111'    ;9
0016   3411           00351     retlw   ~B'11101110'    ;A
Warning[205]: Found directive in column 1. (end)
3FF1                  00352 end
MPASM 5.65                     STOPWATCH.ASM   2-18-2016  16:05:27         PAGE  8


SYMBOL TABLE
  LABEL                             VALUE 

C                                 00000000
DC                                00000001
DELAY_COUNT1                      00000021
DELAY_COUNT2                      00000022
DELAY_COUNT3                      00000023
EEADR                             00000009
EECON1                            00000088
EECON2                            00000089
EEDATA                            00000008
EEIE                              00000006
EEIF                              00000004
F                                 00000001
FSR                               00000004
GIE                               00000007
INDF                              00000000
INTCON                            0000000B
INTE                              00000004
INTEDG                            00000006
INTF                              00000001
IRP                               00000007
NOT_PD                            00000003
NOT_RBPU                          00000007
NOT_TO                            00000004
OPTION_REG                        00000081
PCL                               00000002
PCLATH                            0000000A
PORTA                             00000005
PORTB                             00000006
PS0                               00000000
PS1                               00000001
PS2                               00000002
PSA                               00000003
RA0                               00000000
RA1                               00000001
RA2                               00000002
RA3                               00000003
RA4                               00000004
RB0                               00000000
RB1                               00000001
RB2                               00000002
RB3                               00000003
RB4                               00000004
RB5                               00000005
RB6                               00000006
RB7                               00000007
RBIE                              00000003
RBIF                              00000000
RD                                00000000
RP0                               00000005
RP1                               00000006
STATUS                            00000003
T0CS                              00000005
T0IE                              00000005
MPASM 5.65                     STOPWATCH.ASM   2-18-2016  16:05:27         PAGE  9


SYMBOL TABLE
  LABEL                             VALUE 

T0IF                              00000002
T0SE                              00000004
TMR0                              00000001
TMR0IE                            00000005
TMR0IF                            00000002
TRISA                             00000085
TRISA0                            00000000
TRISA1                            00000001
TRISA2                            00000002
TRISA3                            00000003
TRISA4                            00000004
TRISB                             00000086
TRISB0                            00000000
TRISB1                            00000001
TRISB2                            00000002
TRISB3                            00000003
TRISB4                            00000004
TRISB5                            00000005
TRISB6                            00000006
TRISB7                            00000007
W                                 00000000
WR                                00000001
WREN                              00000002
WRERR                             00000003
Z                                 00000002
_CONFIG                           00002007
_CP_OFF                           00003FFF
_CP_ON                            0000000F
_DEVID1                           00002006
_FOSC_EXTRC                       00003FFF
_FOSC_HS                          00003FFE
_FOSC_LP                          00003FFC
_FOSC_XT                          00003FFD
_HS_OSC                           00003FFE
_IDLOC0                           00002000
_IDLOC1                           00002001
_IDLOC2                           00002002
_IDLOC3                           00002003
_LP_OSC                           00003FFC
_PWRTE_OFF                        00003FFF
_PWRTE_ON                         00003FF7
_RC_OSC                           00003FFF
_WDTE_OFF                         00003FFB
_WDTE_ON                          00003FFF
_WDT_OFF                          00003FFB
_WDT_ON                           00003FFF
_XT_OSC                           00003FFD
__16F84A                          00000001
conversion                        0000000B
loop                              00000006

MPASM 5.65                     STOPWATCH.ASM   2-18-2016  16:05:27         PAGE 10





Errors   :     0
Warnings :     2 reported,     0 suppressed
Messages :     3 reported,     0 suppressed

